#include <math.h>
#include <stdio.h>
#include <stdlib.h>
#include <string.h>

void main()
{
	int a[300],n,b[300],i,j,k=1,t=1;
	scanf("%d",&n);
	for(i=0;i<n;i++)
		scanf("%d",&a[i]);
	b[0]=a[0];
	for(i=1;i<n;i++)
	{
		t=1;
		for(j=0;j<i;j++)
			if(a[i]==a[j])
			{
				t=0;
			}
		if(t!=0)
		{
			b[k]=a[i];
			k++;
		}
	}
	printf("%d",b[0]);
	for(i=1;i<k;i++)
		printf(",%d",b[i]);
	printf("\n");
}